; Function Attrs: mustprogress nofree norecurse nosync nounwind willreturn memory(argmem: write) uwtable
define internal noundef i64 @time_cb(ptr noundef writeonly captures(address_is_null) %0) #10 {
  %.not = icmp eq ptr %0, null
  br i1 %.not, label %3, label %2

2:                                                ; preds = %1
  store i64 99, ptr %0, align 8, !tbaa !27
  br label %3

3:                                                ; preds = %2, %1
  ret i64 99
}